target datalayout = "e-m:e-p270:32:32-p271:32:32-p272:64:64-i64:64-i128:128-f80:128-n8:16:32:64-S128"
target triple = "x86_64-pc-linux-gnu"

%struct.RangeBound = type { i64, i8, i8, i8 }
%struct.FunctionCallInfoBaseData = type { ptr, ptr, ptr, i32, i8, i16, [0 x %struct.NullableDatum] }
%struct.NullableDatum = type { i64, i8 }
%struct.RangeIOData = type { ptr, %struct.FmgrInfo, i32 }
%struct.FmgrInfo = type { ptr, i32, i16, i8, i8, i8, ptr, ptr, ptr }
%struct.StringInfoData = type { ptr, i32, i32, i32 }

; Function Attrs: inlinehint nounwind uwtable
define internal i64 @PointerGetDatum(ptr noundef %0) #2 {
  %2 = alloca ptr, align 8
  store ptr %0, ptr %2, align 8
  %3 = load ptr, ptr %2, align 8
  %4 = ptrtoint ptr %3 to i64
  ret i64 %4
}

; Function Attrs: inlinehint nounwind uwtable
define internal i64 @RangeTypePGetDatum(ptr noundef %0) #2 {
  %2 = alloca ptr, align 8
  store ptr %0, ptr %2, align 8
  %3 = load ptr, ptr %2, align 8
  %4 = call i64 @PointerGetDatum(ptr noundef %3)
  ret i64 %4
}

; Function Attrs: inlinehint nounwind uwtable
define internal i32 @DatumGetInt32(i64 noundef %0) #2 {
  %2 = alloca i64, align 8
  store i64 %0, ptr %2, align 8
  %3 = load i64, ptr %2, align 8
  %4 = trunc i64 %3 to i32
  ret i32 %4
}

; Function Attrs: inlinehint nounwind uwtable
define internal i32 @DatumGetObjectId(i64 noundef %0) #2 {
  %2 = alloca i64, align 8
  store i64 %0, ptr %2, align 8
  %3 = load i64, ptr %2, align 8
  %4 = trunc i64 %3 to i32
  ret i32 %4
}

; Function Attrs: inlinehint nounwind uwtable
define internal ptr @DatumGetPointer(i64 noundef %0) #2 {
  %2 = alloca i64, align 8
  store i64 %0, ptr %2, align 8
  %3 = load i64, ptr %2, align 8
  %4 = inttoptr i64 %3 to ptr
  ret ptr %4
}

; Function Attrs: nounwind uwtable
define dso_local i64 @range_recv(ptr noundef %0) #0 {
  %2 = alloca ptr, align 8
  %3 = alloca ptr, align 8
  %4 = alloca i32, align 4
  %5 = alloca i32, align 4
  %6 = alloca ptr, align 8
  %7 = alloca ptr, align 8
  %8 = alloca i8, align 1
  %9 = alloca %struct.RangeBound, align 8
  %10 = alloca %struct.RangeBound, align 8
  %11 = alloca i32, align 4
  %12 = alloca ptr, align 8
  %13 = alloca %struct.StringInfoData, align 8
  %14 = alloca i32, align 4
  %15 = alloca ptr, align 8
  %16 = alloca %struct.StringInfoData, align 8
  store ptr %0, ptr %2, align 8
  call void @llvm.lifetime.start.p0(i64 8, ptr %3) #10
  %17 = load ptr, ptr %2, align 8
  %18 = getelementptr inbounds nuw %struct.FunctionCallInfoBaseData, ptr %17, i32 0, i32 6
  %19 = getelementptr inbounds [0 x %struct.NullableDatum], ptr %18, i64 0, i64 0
  %20 = getelementptr inbounds nuw %struct.NullableDatum, ptr %19, i32 0, i32 0
  %21 = load i64, ptr %20, align 8
  %22 = call ptr @DatumGetPointer(i64 noundef %21)
  store ptr %22, ptr %3, align 8
  call void @llvm.lifetime.start.p0(i64 4, ptr %4) #10
  %23 = load ptr, ptr %2, align 8
  %24 = getelementptr inbounds nuw %struct.FunctionCallInfoBaseData, ptr %23, i32 0, i32 6
  %25 = getelementptr inbounds [0 x %struct.NullableDatum], ptr %24, i64 0, i64 1
  %26 = getelementptr inbounds nuw %struct.NullableDatum, ptr %25, i32 0, i32 0
  %27 = load i64, ptr %26, align 8
  %28 = call i32 @DatumGetObjectId(i64 noundef %27)
  store i32 %28, ptr %4, align 4
  call void @llvm.lifetime.start.p0(i64 4, ptr %5) #10
  %29 = load ptr, ptr %2, align 8
  %30 = getelementptr inbounds nuw %struct.FunctionCallInfoBaseData, ptr %29, i32 0, i32 6
  %31 = getelementptr inbounds [0 x %struct.NullableDatum], ptr %30, i64 0, i64 2
  %32 = getelementptr inbounds nuw %struct.NullableDatum, ptr %31, i32 0, i32 0
  %33 = load i64, ptr %32, align 8
  %34 = call i32 @DatumGetInt32(i64 noundef %33)
  store i32 %34, ptr %5, align 4
  call void @llvm.lifetime.start.p0(i64 8, ptr %6) #10
  call void @llvm.lifetime.start.p0(i64 8, ptr %7) #10
  call void @llvm.lifetime.start.p0(i64 1, ptr %8) #10
  call void @llvm.lifetime.start.p0(i64 16, ptr %9) #10
  call void @llvm.lifetime.start.p0(i64 16, ptr %10) #10
  call void @check_stack_depth()
  %35 = load ptr, ptr %2, align 8
  %36 = load i32, ptr %4, align 4
  %37 = call ptr @get_range_io_data(ptr noundef %35, i32 noundef %36, i32 noundef 2)
  store ptr %37, ptr %7, align 8
  %38 = load ptr, ptr %3, align 8
  %39 = call i32 @pq_getmsgbyte(ptr noundef %38)
  %40 = trunc i32 %39 to i8
  store i8 %40, ptr %8, align 1
  %41 = load i8, ptr %8, align 1
  %42 = sext i8 %41 to i32
  %43 = and i32 %42, 31
  %44 = trunc i32 %43 to i8
  store i8 %44, ptr %8, align 1
  %45 = load i8, ptr %8, align 1
  %46 = sext i8 %45 to i32
  %47 = and i32 %46, 41
  %48 = icmp ne i32 %47, 0
  br i1 %48, label %67, label %49

49:                                               ; preds = %1
  call void @llvm.lifetime.start.p0(i64 4, ptr %11) #10
  %50 = load ptr, ptr %3, align 8
  %51 = call i32 @pq_getmsgint(ptr noundef %50, i32 noundef 4)
  store i32 %51, ptr %11, align 4
  call void @llvm.lifetime.start.p0(i64 8, ptr %12) #10
  %52 = load ptr, ptr %3, align 8
  %53 = load i32, ptr %11, align 4
  %54 = call ptr @pq_getmsgbytes(ptr noundef %52, i32 noundef %53)
  store ptr %54, ptr %12, align 8
  call void @llvm.lifetime.start.p0(i64 24, ptr %13) #10
  call void @initStringInfo(ptr noundef %13)
  %55 = load ptr, ptr %12, align 8
  %56 = load i32, ptr %11, align 4
  call void @appendBinaryStringInfo(ptr noundef %13, ptr noundef %55, i32 noundef %56)
  %57 = load ptr, ptr %7, align 8
  %58 = getelementptr inbounds nuw %struct.RangeIOData, ptr %57, i32 0, i32 1
  %59 = load ptr, ptr %7, align 8
  %60 = getelementptr inbounds nuw %struct.RangeIOData, ptr %59, i32 0, i32 2
  %61 = load i32, ptr %60, align 8
  %62 = load i32, ptr %5, align 4
  %63 = call i64 @ReceiveFunctionCall(ptr noundef %58, ptr noundef %13, i32 noundef %61, i32 noundef %62)
  %64 = getelementptr inbounds nuw %struct.RangeBound, ptr %9, i32 0, i32 0
  store i64 %63, ptr %64, align 8
  %65 = getelementptr inbounds nuw %struct.StringInfoData, ptr %13, i32 0, i32 0
  %66 = load ptr, ptr %65, align 8
  call void @pfree(ptr noundef %66)
  call void @llvm.lifetime.end.p0(i64 24, ptr %13) #10
  call void @llvm.lifetime.end.p0(i64 8, ptr %12) #10
  call void @llvm.lifetime.end.p0(i64 4, ptr %11) #10
  br label %69

67:                                               ; preds = %1
  %68 = getelementptr inbounds nuw %struct.RangeBound, ptr %9, i32 0, i32 0
  store i64 0, ptr %68, align 8
  br label %69

69:                                               ; preds = %67, %49
  %70 = load i8, ptr %8, align 1
  %71 = sext i8 %70 to i32
  %72 = and i32 %71, 81
  %73 = icmp ne i32 %72, 0
  br i1 %73, label %92, label %74

74:                                               ; preds = %69
  call void @llvm.lifetime.start.p0(i64 4, ptr %14) #10
  %75 = load ptr, ptr %3, align 8
  %76 = call i32 @pq_getmsgint(ptr noundef %75, i32 noundef 4)
  store i32 %76, ptr %14, align 4
  call void @llvm.lifetime.start.p0(i64 8, ptr %15) #10
  %77 = load ptr, ptr %3, align 8
  %78 = load i32, ptr %14, align 4
  %79 = call ptr @pq_getmsgbytes(ptr noundef %77, i32 noundef %78)
  store ptr %79, ptr %15, align 8
  call void @llvm.lifetime.start.p0(i64 24, ptr %16) #10
  call void @initStringInfo(ptr noundef %16)
  %80 = load ptr, ptr %15, align 8
  %81 = load i32, ptr %14, align 4
  call void @appendBinaryStringInfo(ptr noundef %16, ptr noundef %80, i32 noundef %81)
  %82 = load ptr, ptr %7, align 8
  %83 = getelementptr inbounds nuw %struct.RangeIOData, ptr %82, i32 0, i32 1
  %84 = load ptr, ptr %7, align 8
  %85 = getelementptr inbounds nuw %struct.RangeIOData, ptr %84, i32 0, i32 2
  %86 = load i32, ptr %85, align 8
  %87 = load i32, ptr %5, align 4
  %88 = call i64 @ReceiveFunctionCall(ptr noundef %83, ptr noundef %16, i32 noundef %86, i32 noundef %87)
  %89 = getelementptr inbounds nuw %struct.RangeBound, ptr %10, i32 0, i32 0
  store i64 %88, ptr %89, align 8
  %90 = getelementptr inbounds nuw %struct.StringInfoData, ptr %16, i32 0, i32 0
  %91 = load ptr, ptr %90, align 8
  call void @pfree(ptr noundef %91)
  call void @llvm.lifetime.end.p0(i64 24, ptr %16) #10
  call void @llvm.lifetime.end.p0(i64 8, ptr %15) #10
  call void @llvm.lifetime.end.p0(i64 4, ptr %14) #10
  br label %94

92:                                               ; preds = %69
  %93 = getelementptr inbounds nuw %struct.RangeBound, ptr %10, i32 0, i32 0
  store i64 0, ptr %93, align 8
  br label %94

94:                                               ; preds = %92, %74
  %95 = load ptr, ptr %3, align 8
  call void @pq_getmsgend(ptr noundef %95)
  %96 = load i8, ptr %8, align 1
  %97 = sext i8 %96 to i32
  %98 = and i32 %97, 8
  %99 = icmp ne i32 %98, 0
  %100 = getelementptr inbounds nuw %struct.RangeBound, ptr %9, i32 0, i32 1
  %101 = zext i1 %99 to i8
  store i8 %101, ptr %100, align 8
  %102 = load i8, ptr %8, align 1
  %103 = sext i8 %102 to i32
  %104 = and i32 %103, 2
  %105 = icmp ne i32 %104, 0
  %106 = getelementptr inbounds nuw %struct.RangeBound, ptr %9, i32 0, i32 2
  %107 = zext i1 %105 to i8
  store i8 %107, ptr %106, align 1
  %108 = getelementptr inbounds nuw %struct.RangeBound, ptr %9, i32 0, i32 3
  store i8 1, ptr %108, align 2
  %109 = load i8, ptr %8, align 1
  %110 = sext i8 %109 to i32
  %111 = and i32 %110, 16
  %112 = icmp ne i32 %111, 0
  %113 = getelementptr inbounds nuw %struct.RangeBound, ptr %10, i32 0, i32 1
  %114 = zext i1 %112 to i8
  store i8 %114, ptr %113, align 8
  %115 = load i8, ptr %8, align 1
  %116 = sext i8 %115 to i32
  %117 = and i32 %116, 4
  %118 = icmp ne i32 %117, 0
  %119 = getelementptr inbounds nuw %struct.RangeBound, ptr %10, i32 0, i32 2
  %120 = zext i1 %118 to i8
  store i8 %120, ptr %119, align 1
  %121 = getelementptr inbounds nuw %struct.RangeBound, ptr %10, i32 0, i32 3
  store i8 0, ptr %121, align 2
  %122 = load ptr, ptr %7, align 8
  %123 = getelementptr inbounds nuw %struct.RangeIOData, ptr %122, i32 0, i32 0
  %124 = load ptr, ptr %123, align 8
  %125 = load i8, ptr %8, align 1
  %126 = sext i8 %125 to i32
  %127 = and i32 %126, 1
  %128 = icmp ne i32 %127, 0
  %129 = call ptr @make_range(ptr noundef %124, ptr noundef %9, ptr noundef %10, i1 noundef zeroext %128, ptr noundef null)
  store ptr %129, ptr %6, align 8
  %130 = load ptr, ptr %6, align 8
  %131 = call i64 @RangeTypePGetDatum(ptr noundef %130)
  call void @llvm.lifetime.end.p0(i64 16, ptr %10) #10
  call void @llvm.lifetime.end.p0(i64 16, ptr %9) #10
  call void @llvm.lifetime.end.p0(i64 1, ptr %8) #10
  call void @llvm.lifetime.end.p0(i64 8, ptr %7) #10
  call void @llvm.lifetime.end.p0(i64 8, ptr %6) #10
  call void @llvm.lifetime.end.p0(i64 4, ptr %5) #10
  call void @llvm.lifetime.end.p0(i64 4, ptr %4) #10
  call void @llvm.lifetime.end.p0(i64 8, ptr %3) #10
  ret i64 %131
}