; Function Attrs: nounwind uwtable
define dso_local i64 @range_recv(ptr noundef readonly captures(none) %0) local_unnamed_addr #0 {
  %2 = alloca %struct.RangeBound, align 8
  %3 = alloca %struct.RangeBound, align 8
  %4 = alloca %struct.StringInfoData, align 8
  %5 = alloca %struct.StringInfoData, align 8
  %6 = getelementptr inbounds nuw i8, ptr %0, i64 32
  %7 = load i64, ptr %6, align 8
  %8 = inttoptr i64 %7 to ptr
  %9 = getelementptr inbounds nuw i8, ptr %0, i64 48
  %10 = load i64, ptr %9, align 8
  %11 = trunc i64 %10 to i32
  %12 = getelementptr inbounds nuw i8, ptr %0, i64 64
  %13 = load i64, ptr %12, align 8
  %14 = trunc i64 %13 to i32
  call void @llvm.lifetime.start.p0(i64 16, ptr nonnull %2) #14
  call void @llvm.lifetime.start.p0(i64 16, ptr nonnull %3) #14
  tail call void @check_stack_depth() #14
  %15 = tail call fastcc ptr @get_range_io_data(ptr noundef %0, i32 noundef %11, i32 noundef 2)
  %16 = tail call i32 @pq_getmsgbyte(ptr noundef %8) #14
  %17 = and i32 %16, 9
  %.not = icmp eq i32 %17, 0
  br i1 %.not, label %18, label %26

18:                                               ; preds = %1
  %19 = tail call i32 @pq_getmsgint(ptr noundef %8, i32 noundef 4) #14
  %20 = tail call ptr @pq_getmsgbytes(ptr noundef %8, i32 noundef %19) #14
  call void @llvm.lifetime.start.p0(i64 24, ptr nonnull %4) #14
  call void @initStringInfo(ptr noundef nonnull %4) #14
  call void @appendBinaryStringInfo(ptr noundef nonnull %4, ptr noundef %20, i32 noundef %19) #14
  %21 = getelementptr inbounds nuw i8, ptr %15, i64 8
  %22 = getelementptr inbounds nuw i8, ptr %15, i64 56
  %23 = load i32, ptr %22, align 8
  %24 = call i64 @ReceiveFunctionCall(ptr noundef nonnull %21, ptr noundef nonnull %4, i32 noundef %23, i32 noundef %14) #14
  %25 = load ptr, ptr %4, align 8
  call void @pfree(ptr noundef %25) #14
  call void @llvm.lifetime.end.p0(i64 24, ptr nonnull %4) #14
  br label %26

26:                                               ; preds = %1, %18
  %.sink = phi i64 [ %24, %18 ], [ 0, %1 ]
  store i64 %.sink, ptr %2, align 8
  %27 = and i32 %16, 17
  %.not32 = icmp eq i32 %27, 0
  br i1 %.not32, label %28, label %36

28:                                               ; preds = %26
  %29 = call i32 @pq_getmsgint(ptr noundef %8, i32 noundef 4) #14
  %30 = call ptr @pq_getmsgbytes(ptr noundef %8, i32 noundef %29) #14
  call void @llvm.lifetime.start.p0(i64 24, ptr nonnull %5) #14
  call void @initStringInfo(ptr noundef nonnull %5) #14
  call void @appendBinaryStringInfo(ptr noundef nonnull %5, ptr noundef %30, i32 noundef %29) #14
  %31 = getelementptr inbounds nuw i8, ptr %15, i64 8
  %32 = getelementptr inbounds nuw i8, ptr %15, i64 56
  %33 = load i32, ptr %32, align 8
  %34 = call i64 @ReceiveFunctionCall(ptr noundef nonnull %31, ptr noundef nonnull %5, i32 noundef %33, i32 noundef %14) #14
  %35 = load ptr, ptr %5, align 8
  call void @pfree(ptr noundef %35) #14
  call void @llvm.lifetime.end.p0(i64 24, ptr nonnull %5) #14
  br label %36

36:                                               ; preds = %26, %28
  %.sink33 = phi i64 [ %34, %28 ], [ 0, %26 ]
  store i64 %.sink33, ptr %3, align 8
  call void @pq_getmsgend(ptr noundef %8) #14
  %37 = getelementptr inbounds nuw i8, ptr %2, i64 8
  %38 = trunc i32 %16 to i8
  %39 = lshr i8 %38, 3
  %40 = and i8 %39, 1
  store i8 %40, ptr %37, align 8
  %41 = getelementptr inbounds nuw i8, ptr %2, i64 9
  %42 = lshr i8 %38, 1
  %43 = and i8 %42, 1
  store i8 %43, ptr %41, align 1
  %44 = getelementptr inbounds nuw i8, ptr %2, i64 10
  store i8 1, ptr %44, align 2
  %45 = getelementptr inbounds nuw i8, ptr %3, i64 8
  %46 = lshr i8 %38, 4
  %47 = and i8 %46, 1
  store i8 %47, ptr %45, align 8
  %48 = getelementptr inbounds nuw i8, ptr %3, i64 9
  %49 = lshr i8 %38, 2
  %50 = and i8 %49, 1
  store i8 %50, ptr %48, align 1
  %51 = getelementptr inbounds nuw i8, ptr %3, i64 10
  store i8 0, ptr %51, align 2
  %52 = load ptr, ptr %15, align 8
  %53 = and i32 %16, 1
  %54 = icmp ne i32 %53, 0
  %55 = call ptr @make_range(ptr noundef %52, ptr noundef nonnull %2, ptr noundef nonnull %3, i1 noundef zeroext %54, ptr noundef null)
  %56 = ptrtoint ptr %55 to i64
  call void @llvm.lifetime.end.p0(i64 16, ptr nonnull %3) #14
  call void @llvm.lifetime.end.p0(i64 16, ptr nonnull %2) #14
  ret i64 %56
}